target datalayout = "e-m:e-p270:32:32-p271:32:32-p272:64:64-i64:64-i128:128-f80:128-n8:16:32:64-S128"
target triple = "x86_64-pc-linux-gnu"

%"class.ncnn::Net" = type { ptr, %"class.ncnn::Option", ptr }
%"class.ncnn::Option" = type { i8, i32, ptr, ptr, i32, i8, i8, i8, i8, i8, i8, i8, i8, i8, i8, i8, i8, i8, i8, i8, i8, i8, i8, i8, i8, i32, i8, i8, i8, i8, i8, i8, i8, i8, i8, i8, i8, i8 }
%"class.ncnn::NetPrivate" = type { ptr, %"class.std::vector", %"class.std::vector.0", %"class.std::vector.5", %"class.std::vector.5", %"class.std::vector.10", %"class.std::vector.10", %"class.std::vector.15", %"class.std::vector.20", ptr, ptr }
%"class.std::vector" = type { %"struct.std::_Vector_base" }
%"struct.std::_Vector_base" = type { %"struct.std::_Vector_base<ncnn::Blob, std::allocator<ncnn::Blob>>::_Vector_impl" }
%"struct.std::_Vector_base<ncnn::Blob, std::allocator<ncnn::Blob>>::_Vector_impl" = type { %"struct.std::_Vector_base<ncnn::Blob, std::allocator<ncnn::Blob>>::_Vector_impl_data" }
%"struct.std::_Vector_base<ncnn::Blob, std::allocator<ncnn::Blob>>::_Vector_impl_data" = type { ptr, ptr, ptr }
%"class.std::vector.0" = type { %"struct.std::_Vector_base.1" }
%"struct.std::_Vector_base.1" = type { %"struct.std::_Vector_base<ncnn::Layer *, std::allocator<ncnn::Layer *>>::_Vector_impl" }
%"struct.std::_Vector_base<ncnn::Layer *, std::allocator<ncnn::Layer *>>::_Vector_impl" = type { %"struct.std::_Vector_base<ncnn::Layer *, std::allocator<ncnn::Layer *>>::_Vector_impl_data" }
%"struct.std::_Vector_base<ncnn::Layer *, std::allocator<ncnn::Layer *>>::_Vector_impl_data" = type { ptr, ptr, ptr }
%"class.std::vector.5" = type { %"struct.std::_Vector_base.6" }
%"struct.std::_Vector_base.6" = type { %"struct.std::_Vector_base<int, std::allocator<int>>::_Vector_impl" }
%"struct.std::_Vector_base<int, std::allocator<int>>::_Vector_impl" = type { %"struct.std::_Vector_base<int, std::allocator<int>>::_Vector_impl_data" }
%"struct.std::_Vector_base<int, std::allocator<int>>::_Vector_impl_data" = type { ptr, ptr, ptr }
%"class.std::vector.10" = type { %"struct.std::_Vector_base.11" }
%"struct.std::_Vector_base.11" = type { %"struct.std::_Vector_base<const char *, std::allocator<const char *>>::_Vector_impl" }
%"struct.std::_Vector_base<const char *, std::allocator<const char *>>::_Vector_impl" = type { %"struct.std::_Vector_base<const char *, std::allocator<const char *>>::_Vector_impl_data" }
%"struct.std::_Vector_base<const char *, std::allocator<const char *>>::_Vector_impl_data" = type { ptr, ptr, ptr }
%"class.std::vector.15" = type { %"struct.std::_Vector_base.16" }
%"struct.std::_Vector_base.16" = type { %"struct.std::_Vector_base<ncnn::custom_layer_registry_entry, std::allocator<ncnn::custom_layer_registry_entry>>::_Vector_impl" }
%"struct.std::_Vector_base<ncnn::custom_layer_registry_entry, std::allocator<ncnn::custom_layer_registry_entry>>::_Vector_impl" = type { %"struct.std::_Vector_base<ncnn::custom_layer_registry_entry, std::allocator<ncnn::custom_layer_registry_entry>>::_Vector_impl_data" }
%"struct.std::_Vector_base<ncnn::custom_layer_registry_entry, std::allocator<ncnn::custom_layer_registry_entry>>::_Vector_impl_data" = type { ptr, ptr, ptr }
%"class.std::vector.20" = type { %"struct.std::_Vector_base.21" }
%"struct.std::_Vector_base.21" = type { %"struct.std::_Vector_base<ncnn::overwrite_builtin_layer_registry_entry, std::allocator<ncnn::overwrite_builtin_layer_registry_entry>>::_Vector_impl" }
%"struct.std::_Vector_base<ncnn::overwrite_builtin_layer_registry_entry, std::allocator<ncnn::overwrite_builtin_layer_registry_entry>>::_Vector_impl" = type { %"struct.std::_Vector_base<ncnn::overwrite_builtin_layer_registry_entry, std::allocator<ncnn::overwrite_builtin_layer_registry_entry>>::_Vector_impl_data" }
%"struct.std::_Vector_base<ncnn::overwrite_builtin_layer_registry_entry, std::allocator<ncnn::overwrite_builtin_layer_registry_entry>>::_Vector_impl_data" = type { ptr, ptr, ptr }
%"class.ncnn::Layer" = type { ptr, i8, i8, i8, i8, i8, i8, i8, i8, i8, i8, i8, i8, i8, i8, i8, i8, i8, i8, i8, i8, i32, ptr, i32, %"class.std::__cxx11::basic_string", %"class.std::__cxx11::basic_string", %"class.std::vector.5", %"class.std::vector.5", %"class.std::vector.28", %"class.std::vector.28" }
%"class.std::__cxx11::basic_string" = type { %"struct.std::__cxx11::basic_string<char>::_Alloc_hider", i64, %union.anon }
%"struct.std::__cxx11::basic_string<char>::_Alloc_hider" = type { ptr }
%union.anon = type { i64, [8 x i8] }
%"class.std::vector.28" = type { %"struct.std::_Vector_base.29" }
%"struct.std::_Vector_base.29" = type { %"struct.std::_Vector_base<ncnn::Mat, std::allocator<ncnn::Mat>>::_Vector_impl" }
%"struct.std::_Vector_base<ncnn::Mat, std::allocator<ncnn::Mat>>::_Vector_impl" = type { %"struct.std::_Vector_base<ncnn::Mat, std::allocator<ncnn::Mat>>::_Vector_impl_data" }
%"struct.std::_Vector_base<ncnn::Mat, std::allocator<ncnn::Mat>>::_Vector_impl_data" = type { ptr, ptr, ptr }

@stderr = external global ptr, align 8
@.str.3 = private unnamed_addr constant [2 x i8] c"\0A\00", align 1
@.str.47 = private unnamed_addr constant [35 x i8] c"find_layer_index_by_name %s failed\00", align 1

; Function Attrs: inlinehint mustprogress nounwind uwtable
define linkonce_odr noundef zeroext i1 @_ZSteqIcSt11char_traitsIcESaIcEEbRKNSt7__cxx1112basic_stringIT_T0_T1_EEPKS5_(ptr noundef nonnull align 8 dereferenceable(32) %0, ptr noundef %1) #10 comdat {
  %3 = alloca ptr, align 8
  %4 = alloca ptr, align 8
  store ptr %0, ptr %3, align 8, !tbaa !254
  store ptr %1, ptr %4, align 8, !tbaa !9
  %5 = load ptr, ptr %3, align 8, !tbaa !254
  %6 = load ptr, ptr %4, align 8, !tbaa !9
  %7 = call noundef i32 @_ZNKSt7__cxx1112basic_stringIcSt11char_traitsIcESaIcEE7compareEPKc(ptr noundef nonnull align 8 dereferenceable(32) %5, ptr noundef %6) #16
  %8 = icmp eq i32 %7, 0
  ret i1 %8
}

; Function Attrs: mustprogress nounwind uwtable
define linkonce_odr hidden noundef nonnull align 8 dereferenceable(8) ptr @_ZNSt6vectorIPN4ncnn5LayerESaIS2_EEixEm(ptr noundef nonnull align 8 dereferenceable(24) %0, i64 noundef %1) #0 comdat align 2 {
  %3 = alloca ptr, align 8
  %4 = alloca i64, align 8
  store ptr %0, ptr %3, align 8, !tbaa !88
  store i64 %1, ptr %4, align 8, !tbaa !18
  %5 = load ptr, ptr %3, align 8
  %6 = getelementptr inbounds nuw %"struct.std::_Vector_base.1", ptr %5, i32 0, i32 0
  %7 = getelementptr inbounds nuw %"struct.std::_Vector_base<ncnn::Layer *, std::allocator<ncnn::Layer *>>::_Vector_impl_data", ptr %6, i32 0, i32 0
  %8 = load ptr, ptr %7, align 8, !tbaa !119
  %9 = load i64, ptr %4, align 8, !tbaa !18
  %10 = getelementptr inbounds nuw ptr, ptr %8, i64 %9
  ret ptr %10
}

; Function Attrs: mustprogress nounwind uwtable
define linkonce_odr hidden noundef i64 @_ZNKSt6vectorIPN4ncnn5LayerESaIS2_EE4sizeEv(ptr noundef nonnull align 8 dereferenceable(24) %0) #0 comdat align 2 {
  %2 = alloca ptr, align 8
  store ptr %0, ptr %2, align 8, !tbaa !88
  %3 = load ptr, ptr %2, align 8
  %4 = getelementptr inbounds nuw %"struct.std::_Vector_base.1", ptr %3, i32 0, i32 0
  %5 = getelementptr inbounds nuw %"struct.std::_Vector_base<ncnn::Layer *, std::allocator<ncnn::Layer *>>::_Vector_impl_data", ptr %4, i32 0, i32 1
  %6 = load ptr, ptr %5, align 8, !tbaa !120
  %7 = getelementptr inbounds nuw %"struct.std::_Vector_base.1", ptr %3, i32 0, i32 0
  %8 = getelementptr inbounds nuw %"struct.std::_Vector_base<ncnn::Layer *, std::allocator<ncnn::Layer *>>::_Vector_impl_data", ptr %7, i32 0, i32 0
  %9 = load ptr, ptr %8, align 8, !tbaa !119
  %10 = ptrtoint ptr %6 to i64
  %11 = ptrtoint ptr %9 to i64
  %12 = sub i64 %10, %11
  %13 = sdiv exact i64 %12, 8
  ret i64 %13
}

; Function Attrs: mustprogress nounwind uwtable
define hidden noundef i32 @_ZNK4ncnn3Net24find_layer_index_by_nameEPKc(ptr noundef nonnull align 8 dereferenceable(80) %0, ptr noundef %1) #0 align 2 {
  %3 = alloca i32, align 4
  %4 = alloca ptr, align 8
  %5 = alloca ptr, align 8
  %6 = alloca i64, align 8
  %7 = alloca i32, align 4
  %8 = alloca ptr, align 8
  store ptr %0, ptr %4, align 8, !tbaa !4
  store ptr %1, ptr %5, align 8, !tbaa !9
  %9 = load ptr, ptr %4, align 8
  call void @llvm.lifetime.start.p0(i64 8, ptr %6) #16
  store i64 0, ptr %6, align 8, !tbaa !18
  br label %10

10:                                               ; preds = %36, %2
  %11 = load i64, ptr %6, align 8, !tbaa !18
  %12 = getelementptr inbounds nuw %"class.ncnn::Net", ptr %9, i32 0, i32 2
  %13 = load ptr, ptr %12, align 8, !tbaa !11
  %14 = getelementptr inbounds nuw %"class.ncnn::NetPrivate", ptr %13, i32 0, i32 2
  %15 = call noundef i64 @_ZNKSt6vectorIPN4ncnn5LayerESaIS2_EE4sizeEv(ptr noundef nonnull align 8 dereferenceable(24) %14) #16
  %16 = icmp ult i64 %11, %15
  br i1 %16, label %18, label %17

17:                                               ; preds = %10
  store i32 2, ptr %7, align 4
  br label %39

18:                                               ; preds = %10
  call void @llvm.lifetime.start.p0(i64 8, ptr %8) #16
  %19 = getelementptr inbounds nuw %"class.ncnn::Net", ptr %9, i32 0, i32 2
  %20 = load ptr, ptr %19, align 8, !tbaa !11
  %21 = getelementptr inbounds nuw %"class.ncnn::NetPrivate", ptr %20, i32 0, i32 2
  %22 = load i64, ptr %6, align 8, !tbaa !18
  %23 = call noundef nonnull align 8 dereferenceable(8) ptr @_ZNSt6vectorIPN4ncnn5LayerESaIS2_EEixEm(ptr noundef nonnull align 8 dereferenceable(24) %21, i64 noundef %22) #16
  %24 = load ptr, ptr %23, align 8, !tbaa !30
  store ptr %24, ptr %8, align 8, !tbaa !30
  %25 = load ptr, ptr %8, align 8, !tbaa !30
  %26 = getelementptr inbounds nuw %"class.ncnn::Layer", ptr %25, i32 0, i32 25
  %27 = load ptr, ptr %5, align 8, !tbaa !9
  %28 = call noundef zeroext i1 @_ZSteqIcSt11char_traitsIcESaIcEEbRKNSt7__cxx1112basic_stringIT_T0_T1_EEPKS5_(ptr noundef nonnull align 8 dereferenceable(32) %26, ptr noundef %27)
  br i1 %28, label %29, label %32

29:                                               ; preds = %18
  %30 = load i64, ptr %6, align 8, !tbaa !18
  %31 = trunc i64 %30 to i32
  store i32 %31, ptr %3, align 4
  store i32 1, ptr %7, align 4
  br label %33

32:                                               ; preds = %18
  store i32 0, ptr %7, align 4
  br label %33

33:                                               ; preds = %32, %29
  call void @llvm.lifetime.end.p0(i64 8, ptr %8) #16
  %34 = load i32, ptr %7, align 4
  switch i32 %34, label %39 [
    i32 0, label %35
  ]

35:                                               ; preds = %33
  br label %36

36:                                               ; preds = %35
  %37 = load i64, ptr %6, align 8, !tbaa !18
  %38 = add i64 %37, 1
  store i64 %38, ptr %6, align 8, !tbaa !18
  br label %10, !llvm.loop !374

39:                                               ; preds = %33, %17
  call void @llvm.lifetime.end.p0(i64 8, ptr %6) #16
  %40 = load i32, ptr %7, align 4
  switch i32 %40, label %51 [
    i32 2, label %41
    i32 1, label %49
  ]

41:                                               ; preds = %39
  br label %42

42:                                               ; preds = %41
  %43 = load ptr, ptr @stderr, align 8, !tbaa !264
  %44 = load ptr, ptr %5, align 8, !tbaa !9
  %45 = call i32 (ptr, ptr, ...) @fprintf(ptr noundef %43, ptr noundef @.str.47, ptr noundef %44) #16
  %46 = load ptr, ptr @stderr, align 8, !tbaa !264
  %47 = call i32 (ptr, ptr, ...) @fprintf(ptr noundef %46, ptr noundef @.str.3) #16
  br label %48

48:                                               ; preds = %42
  store i32 -1, ptr %3, align 4
  br label %49

49:                                               ; preds = %48, %39
  %50 = load i32, ptr %3, align 4
  ret i32 %50

51:                                               ; preds = %39
  unreachable
}