; Function Attrs: mustprogress nounwind uwtable
define hidden noundef i32 @_ZNK4ncnn3Net24find_layer_index_by_nameEPKc(ptr noundef nonnull readonly align 8 captures(none) dereferenceable(80) %0, ptr noundef %1) local_unnamed_addr #0 align 2 {
  %3 = getelementptr inbounds nuw i8, ptr %0, i64 72
  %4 = load ptr, ptr %3, align 8, !tbaa !7
  %5 = getelementptr inbounds nuw i8, ptr %4, i64 32
  %6 = getelementptr inbounds nuw i8, ptr %4, i64 40
  %7 = load ptr, ptr %6, align 8, !tbaa !118
  %8 = load ptr, ptr %5, align 8, !tbaa !53
  %.not = icmp eq ptr %7, %8
  br i1 %.not, label %._crit_edge, label %.lr.ph

.lr.ph:                                           ; preds = %2, %15
  %9 = phi ptr [ %21, %15 ], [ %8, %2 ]
  %.01218 = phi i64 [ %16, %15 ], [ 0, %2 ]
  %10 = getelementptr inbounds nuw ptr, ptr %9, i64 %.01218
  %11 = load ptr, ptr %10, align 8, !tbaa !57
  %12 = getelementptr inbounds nuw i8, ptr %11, i64 80
  %13 = tail call noundef i32 @_ZNKSt7__cxx1112basic_stringIcSt11char_traitsIcESaIcEE7compareEPKc(ptr noundef nonnull align 8 dereferenceable(32) %12, ptr noundef %1) #26
  %14 = icmp eq i32 %13, 0
  br i1 %14, label %27, label %15

15:                                               ; preds = %.lr.ph
  %16 = add nuw i64 %.01218, 1
  %17 = load ptr, ptr %3, align 8, !tbaa !7
  %18 = getelementptr inbounds nuw i8, ptr %17, i64 32
  %19 = getelementptr inbounds nuw i8, ptr %17, i64 40
  %20 = load ptr, ptr %19, align 8, !tbaa !118
  %21 = load ptr, ptr %18, align 8, !tbaa !53
  %22 = ptrtoint ptr %20 to i64
  %23 = ptrtoint ptr %21 to i64
  %24 = sub i64 %22, %23
  %25 = ashr exact i64 %24, 3
  %26 = icmp ult i64 %16, %25
  br i1 %26, label %.lr.ph, label %._crit_edge, !llvm.loop !216

27:                                               ; preds = %.lr.ph
  %28 = trunc i64 %.01218 to i32
  br label %32

._crit_edge:                                      ; preds = %15, %2
  %29 = load ptr, ptr @stderr, align 8, !tbaa !157
  %30 = tail call i32 (ptr, ptr, ...) @fprintf(ptr noundef %29, ptr noundef nonnull @.str.47, ptr noundef %1) #33
  %31 = load ptr, ptr @stderr, align 8, !tbaa !157
  %fputc = tail call i32 @fputc(i32 10, ptr %31)
  br label %32

32:                                               ; preds = %27, %._crit_edge
  %.3 = phi i32 [ %28, %27 ], [ -1, %._crit_edge ]
  ret i32 %.3
}